target datalayout = "e-m:e-p270:32:32-p271:32:32-p272:64:64-i64:64-i128:128-f80:128-n8:16:32:64-S128"
target triple = "x86_64-pc-linux-gnu"

%struct.nghttp2_session = type { %struct.nghttp2_map, %struct.nghttp2_stream, %struct.nghttp2_outbound_queue, %struct.nghttp2_outbound_queue, %struct.nghttp2_outbound_queue, [8 x %struct.anon], %struct.nghttp2_active_outbound_item, %struct.nghttp2_inbound_frame, %struct.nghttp2_hd_deflater, %struct.nghttp2_hd_inflater, %struct.nghttp2_session_callbacks, %struct.nghttp2_mem, ptr, ptr, ptr, ptr, ptr, ptr, i64, i64, i64, i64, i64, i64, i64, i64, i64, i64, i64, i64, i32, i32, i32, i32, i32, i32, i32, i32, i32, i32, i32, i32, i8, %struct.nghttp2_settings_storage, %struct.nghttp2_settings_storage, i32, i32, i32, i8, i8, i8, i8, i8, i8, i8, [32 x i8] }
%struct.nghttp2_map = type { ptr, ptr, i64, i32, i32 }
%struct.nghttp2_stream = type { %struct.nghttp2_pq_entry, %struct.nghttp2_pq, i64, i64, i64, i64, i64, i64, ptr, ptr, ptr, ptr, ptr, ptr, ptr, ptr, i64, i32, i32, i32, i32, i32, i32, i32, i32, i32, i32, i16, i32, i8, i8, i8, i8, i8, i8 }
%struct.nghttp2_pq_entry = type { i64 }
%struct.nghttp2_pq = type { ptr, ptr, i64, i64, ptr }
%struct.nghttp2_outbound_queue = type { ptr, ptr, i64 }
%struct.anon = type { %struct.nghttp2_pq }
%struct.nghttp2_active_outbound_item = type { ptr, %struct.nghttp2_bufs, i32 }
%struct.nghttp2_bufs = type { ptr, ptr, ptr, i64, i64, i64, i64, i64 }
%struct.nghttp2_inbound_frame = type { %union.nghttp2_frame, %union.nghttp2_ext_frame_payload, ptr, %struct.nghttp2_buf, %struct.nghttp2_buf, ptr, i64, i64, i64, i64, i32, [32 x i8] }
%union.nghttp2_frame = type { %struct.nghttp2_headers }
%struct.nghttp2_headers = type { %struct.nghttp2_frame_hd, i64, %struct.nghttp2_priority_spec, ptr, i64, i32 }
%struct.nghttp2_frame_hd = type { i64, i32, i8, i8, i8 }
%struct.nghttp2_priority_spec = type { i32, i32, i8 }
%union.nghttp2_ext_frame_payload = type { %struct.nghttp2_ext_altsvc }
%struct.nghttp2_ext_altsvc = type { ptr, i64, ptr, i64 }
%struct.nghttp2_buf = type { ptr, ptr, ptr, ptr, ptr }
%struct.nghttp2_hd_deflater = type { %struct.nghttp2_hd_context, %struct.nghttp2_hd_map, i64, i64, i8 }
%struct.nghttp2_hd_context = type { %struct.nghttp2_hd_ringbuf, ptr, i64, i64, i32, i8 }
%struct.nghttp2_hd_ringbuf = type { ptr, i64, i64, i64 }
%struct.nghttp2_hd_map = type { [128 x ptr] }
%struct.nghttp2_hd_inflater = type { %struct.nghttp2_hd_context, %struct.nghttp2_hd_huff_decode_context, %struct.nghttp2_buf, %struct.nghttp2_buf, ptr, ptr, ptr, ptr, i64, i64, i64, i64, i64, i32, i32, i8, i8, i8 }
%struct.nghttp2_hd_huff_decode_context = type { i16 }
%struct.nghttp2_session_callbacks = type { ptr, ptr, ptr, ptr, ptr, ptr, ptr, ptr, ptr, ptr, ptr, ptr, ptr, ptr, ptr, ptr, ptr, ptr, ptr, ptr, ptr, ptr, ptr }
%struct.nghttp2_mem = type { ptr, ptr, ptr, ptr, ptr }
%struct.nghttp2_settings_storage = type { i32, i32, i32, i32, i32, i32, i32, i32 }

; Function Attrs: nounwind uwtable
define internal i64 @pq_get_first_cycle(ptr noundef %0) #0 {
  %2 = alloca i64, align 8
  %3 = alloca ptr, align 8
  %4 = alloca ptr, align 8
  %5 = alloca i32, align 4
  store ptr %0, ptr %3, align 8, !tbaa !53
  call void @llvm.lifetime.start.p0(i64 8, ptr %4) #9
  %6 = load ptr, ptr %3, align 8, !tbaa !53
  %7 = call i32 @nghttp2_pq_empty(ptr noundef %6)
  %8 = icmp ne i32 %7, 0
  br i1 %8, label %9, label %10

9:                                                ; preds = %1
  store i64 0, ptr %2, align 8
  store i32 1, ptr %5, align 4
  br label %17

10:                                               ; preds = %1
  %11 = load ptr, ptr %3, align 8, !tbaa !53
  %12 = call ptr @nghttp2_pq_top(ptr noundef %11)
  %13 = getelementptr inbounds i8, ptr %12, i64 0
  store ptr %13, ptr %4, align 8, !tbaa !46
  %14 = load ptr, ptr %4, align 8, !tbaa !46
  %15 = getelementptr inbounds nuw %struct.nghttp2_stream, ptr %14, i32 0, i32 5
  %16 = load i64, ptr %15, align 8, !tbaa !292
  store i64 %16, ptr %2, align 8
  store i32 1, ptr %5, align 4
  br label %17

17:                                               ; preds = %10, %9
  call void @llvm.lifetime.end.p0(i64 8, ptr %4) #9
  %18 = load i64, ptr %2, align 8
  ret i64 %18
}

; Function Attrs: nounwind uwtable
define internal i32 @session_ob_data_push(ptr noundef %0, ptr noundef %1) #0 {
  %3 = alloca i32, align 4
  %4 = alloca ptr, align 8
  %5 = alloca ptr, align 8
  %6 = alloca i32, align 4
  %7 = alloca i32, align 4
  %8 = alloca i32, align 4
  %9 = alloca ptr, align 8
  %10 = alloca i32, align 4
  store ptr %0, ptr %4, align 8, !tbaa !8
  store ptr %1, ptr %5, align 8, !tbaa !46
  call void @llvm.lifetime.start.p0(i64 4, ptr %6) #9
  call void @llvm.lifetime.start.p0(i64 4, ptr %7) #9
  call void @llvm.lifetime.start.p0(i64 4, ptr %8) #9
  call void @llvm.lifetime.start.p0(i64 8, ptr %9) #9
  %11 = load ptr, ptr %5, align 8, !tbaa !46
  %12 = getelementptr inbounds nuw %struct.nghttp2_stream, ptr %11, i32 0, i32 33
  %13 = load i8, ptr %12, align 4, !tbaa !232
  %14 = zext i8 %13 to i32
  %15 = and i32 %14, -129
  store i32 %15, ptr %7, align 4, !tbaa !4
  %16 = load ptr, ptr %5, align 8, !tbaa !46
  %17 = getelementptr inbounds nuw %struct.nghttp2_stream, ptr %16, i32 0, i32 33
  %18 = load i8, ptr %17, align 4, !tbaa !232
  %19 = zext i8 %18 to i32
  %20 = and i32 %19, 128
  %21 = icmp ne i32 %20, 0
  %22 = zext i1 %21 to i32
  store i32 %22, ptr %8, align 4, !tbaa !4
  %23 = load ptr, ptr %4, align 8, !tbaa !8
  %24 = getelementptr inbounds nuw %struct.nghttp2_session, ptr %23, i32 0, i32 5
  %25 = load i32, ptr %7, align 4, !tbaa !4
  %26 = zext i32 %25 to i64
  %27 = getelementptr inbounds nuw [8 x %struct.anon], ptr %24, i64 0, i64 %26
  %28 = getelementptr inbounds nuw %struct.anon, ptr %27, i32 0, i32 0
  store ptr %28, ptr %9, align 8, !tbaa !53
  %29 = load ptr, ptr %9, align 8, !tbaa !53
  %30 = call i64 @pq_get_first_cycle(ptr noundef %29)
  %31 = load ptr, ptr %5, align 8, !tbaa !46
  %32 = getelementptr inbounds nuw %struct.nghttp2_stream, ptr %31, i32 0, i32 5
  store i64 %30, ptr %32, align 8, !tbaa !292
  %33 = load i32, ptr %8, align 4, !tbaa !4
  %34 = icmp ne i32 %33, 0
  br i1 %34, label %35, label %43

35:                                               ; preds = %2
  %36 = load ptr, ptr %5, align 8, !tbaa !46
  %37 = getelementptr inbounds nuw %struct.nghttp2_stream, ptr %36, i32 0, i32 16
  %38 = load i64, ptr %37, align 8, !tbaa !277
  %39 = load ptr, ptr %5, align 8, !tbaa !46
  %40 = getelementptr inbounds nuw %struct.nghttp2_stream, ptr %39, i32 0, i32 5
  %41 = load i64, ptr %40, align 8, !tbaa !292
  %42 = add i64 %41, %38
  store i64 %42, ptr %40, align 8, !tbaa !292
  br label %43

43:                                               ; preds = %35, %2
  %44 = load ptr, ptr %9, align 8, !tbaa !53
  %45 = load ptr, ptr %5, align 8, !tbaa !46
  %46 = getelementptr inbounds nuw %struct.nghttp2_stream, ptr %45, i32 0, i32 0
  %47 = call i32 @nghttp2_pq_push(ptr noundef %44, ptr noundef %46)
  store i32 %47, ptr %6, align 4, !tbaa !4
  %48 = load i32, ptr %6, align 4, !tbaa !4
  %49 = icmp ne i32 %48, 0
  br i1 %49, label %50, label %52

50:                                               ; preds = %43
  %51 = load i32, ptr %6, align 4, !tbaa !4
  store i32 %51, ptr %3, align 4
  store i32 1, ptr %10, align 4
  br label %55

52:                                               ; preds = %43
  %53 = load ptr, ptr %5, align 8, !tbaa !46
  %54 = getelementptr inbounds nuw %struct.nghttp2_stream, ptr %53, i32 0, i32 31
  store i8 1, ptr %54, align 2, !tbaa !156
  store i32 0, ptr %3, align 4
  store i32 1, ptr %10, align 4
  br label %55

55:                                               ; preds = %52, %50
  call void @llvm.lifetime.end.p0(i64 8, ptr %9) #9
  call void @llvm.lifetime.end.p0(i64 4, ptr %8) #9
  call void @llvm.lifetime.end.p0(i64 4, ptr %7) #9
  call void @llvm.lifetime.end.p0(i64 4, ptr %6) #9
  %56 = load i32, ptr %3, align 4
  ret i32 %56
}

; Function Attrs: nounwind uwtable
define dso_local i32 @nghttp2_is_fatal(i32 noundef %0) #0 {
  %2 = alloca i32, align 4
  store i32 %0, ptr %2, align 4, !tbaa !4
  %3 = load i32, ptr %2, align 4, !tbaa !4
  %4 = icmp slt i32 %3, -900
  %5 = zext i1 %4 to i32
  ret i32 %5
}

; Function Attrs: nounwind uwtable
define internal i32 @session_resume_deferred_stream_item(ptr noundef %0, ptr noundef %1, i8 noundef zeroext %2) #0 {
  %4 = alloca i32, align 4
  %5 = alloca ptr, align 8
  %6 = alloca ptr, align 8
  %7 = alloca i8, align 1
  %8 = alloca i32, align 4
  %9 = alloca i32, align 4
  store ptr %0, ptr %5, align 8, !tbaa !8
  store ptr %1, ptr %6, align 8, !tbaa !46
  store i8 %2, ptr %7, align 1, !tbaa !115
  call void @llvm.lifetime.start.p0(i64 4, ptr %8) #9
  %10 = load ptr, ptr %6, align 8, !tbaa !46
  %11 = load i8, ptr %7, align 1, !tbaa !115
  %12 = call i32 @nghttp2_stream_resume_deferred_item(ptr noundef %10, i8 noundef zeroext %11)
  store i32 %12, ptr %8, align 4, !tbaa !4
  %13 = load i32, ptr %8, align 4, !tbaa !4
  %14 = icmp ne i32 %13, 0
  br i1 %14, label %15, label %17

15:                                               ; preds = %3
  %16 = load i32, ptr %8, align 4, !tbaa !4
  store i32 %16, ptr %4, align 4
  store i32 1, ptr %9, align 4
  br label %36

17:                                               ; preds = %3
  %18 = load ptr, ptr %6, align 8, !tbaa !46
  %19 = getelementptr inbounds nuw %struct.nghttp2_stream, ptr %18, i32 0, i32 29
  %20 = load i8, ptr %19, align 8, !tbaa !47
  %21 = zext i8 %20 to i32
  %22 = and i32 %21, 16
  %23 = icmp ne i32 %22, 0
  br i1 %23, label %24, label %31

24:                                               ; preds = %17
  %25 = load ptr, ptr %6, align 8, !tbaa !46
  %26 = getelementptr inbounds nuw %struct.nghttp2_stream, ptr %25, i32 0, i32 29
  %27 = load i8, ptr %26, align 8, !tbaa !47
  %28 = zext i8 %27 to i32
  %29 = and i32 %28, 12
  %30 = icmp ne i32 %29, 0
  br i1 %30, label %31, label %32

31:                                               ; preds = %24, %17
  store i32 0, ptr %4, align 4
  store i32 1, ptr %9, align 4
  br label %36

32:                                               ; preds = %24
  %33 = load ptr, ptr %5, align 8, !tbaa !8
  %34 = load ptr, ptr %6, align 8, !tbaa !46
  %35 = call i32 @session_ob_data_push(ptr noundef %33, ptr noundef %34)
  store i32 %35, ptr %4, align 4
  store i32 1, ptr %9, align 4
  br label %36

36:                                               ; preds = %32, %31, %15
  call void @llvm.lifetime.end.p0(i64 4, ptr %8) #9
  %37 = load i32, ptr %4, align 4
  ret i32 %37
}

; Function Attrs: nounwind uwtable
define dso_local ptr @nghttp2_session_get_stream(ptr noundef %0, i32 noundef %1) #0 {
  %3 = alloca ptr, align 8
  %4 = alloca ptr, align 8
  %5 = alloca i32, align 4
  %6 = alloca ptr, align 8
  %7 = alloca i32, align 4
  store ptr %0, ptr %4, align 8, !tbaa !8
  store i32 %1, ptr %5, align 4, !tbaa !4
  call void @llvm.lifetime.start.p0(i64 8, ptr %6) #9
  %8 = load ptr, ptr %4, align 8, !tbaa !8
  %9 = getelementptr inbounds nuw %struct.nghttp2_session, ptr %8, i32 0, i32 0
  %10 = load i32, ptr %5, align 4, !tbaa !4
  %11 = call ptr @nghttp2_map_find(ptr noundef %9, i32 noundef %10)
  store ptr %11, ptr %6, align 8, !tbaa !46
  %12 = load ptr, ptr %6, align 8, !tbaa !46
  %13 = icmp eq ptr %12, null
  br i1 %13, label %26, label %14

14:                                               ; preds = %2
  %15 = load ptr, ptr %6, align 8, !tbaa !46
  %16 = getelementptr inbounds nuw %struct.nghttp2_stream, ptr %15, i32 0, i32 29
  %17 = load i8, ptr %16, align 8, !tbaa !47
  %18 = zext i8 %17 to i32
  %19 = and i32 %18, 2
  %20 = icmp ne i32 %19, 0
  br i1 %20, label %26, label %21

21:                                               ; preds = %14
  %22 = load ptr, ptr %6, align 8, !tbaa !46
  %23 = getelementptr inbounds nuw %struct.nghttp2_stream, ptr %22, i32 0, i32 26
  %24 = load i32, ptr %23, align 4, !tbaa !48
  %25 = icmp eq i32 %24, 5
  br i1 %25, label %26, label %27

26:                                               ; preds = %21, %14, %2
  store ptr null, ptr %3, align 8
  store i32 1, ptr %7, align 4
  br label %29

27:                                               ; preds = %21
  %28 = load ptr, ptr %6, align 8, !tbaa !46
  store ptr %28, ptr %3, align 8
  store i32 1, ptr %7, align 4
  br label %29

29:                                               ; preds = %27, %26
  call void @llvm.lifetime.end.p0(i64 8, ptr %6) #9
  %30 = load ptr, ptr %3, align 8
  ret ptr %30
}

; Function Attrs: nounwind uwtable
define dso_local i32 @nghttp2_session_resume_data(ptr noundef %0, i32 noundef %1) #0 {
  %3 = alloca i32, align 4
  %4 = alloca ptr, align 8
  %5 = alloca i32, align 4
  %6 = alloca i32, align 4
  %7 = alloca ptr, align 8
  %8 = alloca i32, align 4
  store ptr %0, ptr %4, align 8, !tbaa !8
  store i32 %1, ptr %5, align 4, !tbaa !4
  call void @llvm.lifetime.start.p0(i64 4, ptr %6) #9
  call void @llvm.lifetime.start.p0(i64 8, ptr %7) #9
  %9 = load ptr, ptr %4, align 8, !tbaa !8
  %10 = load i32, ptr %5, align 4, !tbaa !4
  %11 = call ptr @nghttp2_session_get_stream(ptr noundef %9, i32 noundef %10)
  store ptr %11, ptr %7, align 8, !tbaa !46
  %12 = load ptr, ptr %7, align 8, !tbaa !46
  %13 = icmp eq ptr %12, null
  br i1 %13, label %18, label %14

14:                                               ; preds = %2
  %15 = load ptr, ptr %7, align 8, !tbaa !46
  %16 = call i32 @nghttp2_stream_check_deferred_item(ptr noundef %15)
  %17 = icmp ne i32 %16, 0
  br i1 %17, label %19, label %18

18:                                               ; preds = %14, %2
  store i32 -501, ptr %3, align 4
  store i32 1, ptr %8, align 4
  br label %29

19:                                               ; preds = %14
  %20 = load ptr, ptr %4, align 8, !tbaa !8
  %21 = load ptr, ptr %7, align 8, !tbaa !46
  %22 = call i32 @session_resume_deferred_stream_item(ptr noundef %20, ptr noundef %21, i8 noundef zeroext 8)
  store i32 %22, ptr %6, align 4, !tbaa !4
  %23 = load i32, ptr %6, align 4, !tbaa !4
  %24 = call i32 @nghttp2_is_fatal(i32 noundef %23)
  %25 = icmp ne i32 %24, 0
  br i1 %25, label %26, label %28

26:                                               ; preds = %19
  %27 = load i32, ptr %6, align 4, !tbaa !4
  store i32 %27, ptr %3, align 4
  store i32 1, ptr %8, align 4
  br label %29

28:                                               ; preds = %19
  store i32 0, ptr %3, align 4
  store i32 1, ptr %8, align 4
  br label %29

29:                                               ; preds = %28, %26, %18
  call void @llvm.lifetime.end.p0(i64 8, ptr %7) #9
  call void @llvm.lifetime.end.p0(i64 4, ptr %6) #9
  %30 = load i32, ptr %3, align 4
  ret i32 %30
}