; Function Attrs: nounwind uwtable
define dso_local noundef i32 @nghttp2_session_resume_data(ptr noundef %0, i32 noundef %1) local_unnamed_addr #1 {
  %3 = tail call ptr @nghttp2_map_find(ptr noundef %0, i32 noundef %1) #20
  %4 = icmp eq ptr %3, null
  br i1 %4, label %nghttp2_session_get_stream.exit.thread, label %5

5:                                                ; preds = %2
  %6 = getelementptr inbounds nuw i8, ptr %3, i64 216
  %7 = load i8, ptr %6, align 8, !tbaa !41
  %8 = and i8 %7, 2
  %.not.i = icmp eq i8 %8, 0
  br i1 %.not.i, label %9, label %nghttp2_session_get_stream.exit.thread

9:                                                ; preds = %5
  %10 = getelementptr inbounds nuw i8, ptr %3, i64 204
  %11 = load i32, ptr %10, align 4, !tbaa !42
  %12 = icmp eq i32 %11, 5
  br i1 %12, label %nghttp2_session_get_stream.exit.thread, label %nghttp2_session_get_stream.exit

nghttp2_session_get_stream.exit:                  ; preds = %9
  %13 = tail call i32 @nghttp2_stream_check_deferred_item(ptr noundef nonnull %3) #20
  %.not = icmp eq i32 %13, 0
  br i1 %.not, label %nghttp2_session_get_stream.exit.thread, label %14

14:                                               ; preds = %nghttp2_session_get_stream.exit
  %15 = tail call i32 @nghttp2_stream_resume_deferred_item(ptr noundef nonnull %3, i8 noundef zeroext 8) #20
  %.not.i10 = icmp eq i32 %15, 0
  br i1 %.not.i10, label %16, label %session_resume_deferred_stream_item.exit

16:                                               ; preds = %14
  %17 = load i8, ptr %6, align 8, !tbaa !41
  %18 = and i8 %17, 28
  %or.cond.i = icmp eq i8 %18, 16
  br i1 %or.cond.i, label %19, label %session_resume_deferred_stream_item.exit.thread

19:                                               ; preds = %16
  %20 = getelementptr inbounds nuw i8, ptr %3, i64 220
  %21 = load i8, ptr %20, align 4, !tbaa !138
  %22 = and i8 %21, 127
  %.not.i.i = icmp sgt i8 %21, -1
  %23 = getelementptr inbounds nuw i8, ptr %0, i64 328
  %24 = zext nneg i8 %22 to i64
  %25 = getelementptr inbounds nuw [8 x %struct.anon], ptr %23, i64 0, i64 %24
  %26 = tail call i32 @nghttp2_pq_empty(ptr noundef nonnull %25) #20
  %.not.i.i.i = icmp eq i32 %26, 0
  br i1 %.not.i.i.i, label %27, label %pq_get_first_cycle.exit.i.i

27:                                               ; preds = %19
  %28 = tail call ptr @nghttp2_pq_top(ptr noundef nonnull %25) #20
  %29 = getelementptr inbounds nuw i8, ptr %28, i64 72
  %30 = load i64, ptr %29, align 8, !tbaa !139
  br label %pq_get_first_cycle.exit.i.i

pq_get_first_cycle.exit.i.i:                      ; preds = %27, %19
  %.0.i.i.i = phi i64 [ %30, %27 ], [ 0, %19 ]
  %31 = getelementptr inbounds nuw i8, ptr %3, i64 72
  store i64 %.0.i.i.i, ptr %31, align 8, !tbaa !139
  br i1 %.not.i.i, label %36, label %32

32:                                               ; preds = %pq_get_first_cycle.exit.i.i
  %33 = getelementptr inbounds nuw i8, ptr %3, i64 160
  %34 = load i64, ptr %33, align 8, !tbaa !140
  %35 = add i64 %34, %.0.i.i.i
  store i64 %35, ptr %31, align 8, !tbaa !139
  br label %36

36:                                               ; preds = %32, %pq_get_first_cycle.exit.i.i
  %37 = tail call i32 @nghttp2_pq_push(ptr noundef nonnull %25, ptr noundef nonnull %3) #20
  %.not15.i.i = icmp eq i32 %37, 0
  br i1 %.not15.i.i, label %38, label %session_resume_deferred_stream_item.exit

38:                                               ; preds = %36
  %39 = getelementptr inbounds nuw i8, ptr %3, i64 218
  store i8 1, ptr %39, align 2, !tbaa !141
  br label %session_resume_deferred_stream_item.exit.thread

session_resume_deferred_stream_item.exit:         ; preds = %14, %36
  %.0.i11 = phi i32 [ %15, %14 ], [ %37, %36 ]
  %.0.i11.fr = freeze i32 %.0.i11
  %40 = icmp sgt i32 %.0.i11.fr, -901
  br i1 %40, label %session_resume_deferred_stream_item.exit.thread, label %nghttp2_session_get_stream.exit.thread

session_resume_deferred_stream_item.exit.thread:  ; preds = %38, %16, %session_resume_deferred_stream_item.exit
  br label %nghttp2_session_get_stream.exit.thread

nghttp2_session_get_stream.exit.thread:           ; preds = %session_resume_deferred_stream_item.exit.thread, %session_resume_deferred_stream_item.exit, %9, %2, %5, %nghttp2_session_get_stream.exit
  %.0 = phi i32 [ -501, %nghttp2_session_get_stream.exit ], [ -501, %5 ], [ -501, %2 ], [ -501, %9 ], [ 0, %session_resume_deferred_stream_item.exit.thread ], [ %.0.i11.fr, %session_resume_deferred_stream_item.exit ]
  ret i32 %.0
}